target datalayout = "e-m:e-p270:32:32-p271:32:32-p272:64:64-i64:64-i128:128-f80:128-n8:16:32:64-S128"
target triple = "x86_64-pc-linux-gnu"

%struct.FunctionCallInfoBaseData = type { ptr, ptr, ptr, i32, i8, i16, [0 x %struct.NullableDatum] }
%struct.NullableDatum = type { i64, i8 }

@.str.1 = private unnamed_addr constant [10 x i8] c"genfile.c\00", align 1
@.str.15 = private unnamed_addr constant [37 x i8] c"replication slot \22%s\22 does not exist\00", align 1
@__func__.pg_ls_replslotdir = private unnamed_addr constant [18 x i8] c"pg_ls_replslotdir\00", align 1
@.str.16 = private unnamed_addr constant [6 x i8] c"%s/%s\00", align 1
@.str.17 = private unnamed_addr constant [12 x i8] c"pg_replslot\00", align 1

; Function Attrs: inlinehint nounwind uwtable
define internal ptr @DatumGetPointer(i64 noundef %0) #3 {
  %2 = alloca i64, align 8
  store i64 %0, ptr %2, align 8
  %3 = load i64, ptr %2, align 8
  %4 = inttoptr i64 %3 to ptr
  ret ptr %4
}

; Function Attrs: nounwind uwtable
define dso_local i64 @pg_ls_replslotdir(ptr noundef %0) #0 {
  %2 = alloca ptr, align 8
  %3 = alloca ptr, align 8
  %4 = alloca [1024 x i8], align 16
  %5 = alloca ptr, align 8
  store ptr %0, ptr %2, align 8
  call void @llvm.lifetime.start.p0(i64 8, ptr %3) #9
  call void @llvm.lifetime.start.p0(i64 1024, ptr %4) #9
  call void @llvm.lifetime.start.p0(i64 8, ptr %5) #9
  %6 = load ptr, ptr %2, align 8
  %7 = getelementptr inbounds nuw %struct.FunctionCallInfoBaseData, ptr %6, i32 0, i32 6
  %8 = getelementptr inbounds [0 x %struct.NullableDatum], ptr %7, i64 0, i64 0
  %9 = getelementptr inbounds nuw %struct.NullableDatum, ptr %8, i32 0, i32 0
  %10 = load i64, ptr %9, align 8
  %11 = call ptr @DatumGetPointer(i64 noundef %10)
  %12 = call ptr @pg_detoast_datum_packed(ptr noundef %11)
  store ptr %12, ptr %3, align 8
  %13 = load ptr, ptr %3, align 8
  %14 = call ptr @text_to_cstring(ptr noundef %13)
  store ptr %14, ptr %5, align 8
  %15 = load ptr, ptr %5, align 8
  %16 = call ptr @SearchNamedReplicationSlot(ptr noundef %15, i1 noundef zeroext true)
  %17 = icmp ne ptr %16, null
  br i1 %17, label %31, label %18

18:                                               ; preds = %1
  br label %19

19:                                               ; preds = %18
  br i1 true, label %20, label %22

20:                                               ; preds = %19
  %21 = call zeroext i1 @errstart_cold(i32 noundef 21, ptr noundef null) #10
  br i1 %21, label %24, label %28

22:                                               ; preds = %19
  %23 = call zeroext i1 @errstart(i32 noundef 21, ptr noundef null)
  br i1 %23, label %24, label %28

24:                                               ; preds = %22, %20
  %25 = call i32 @errcode(i32 noundef 67137668)
  %26 = load ptr, ptr %5, align 8
  %27 = call i32 (ptr, ...) @errmsg(ptr noundef @.str.15, ptr noundef %26)
  call void @errfinish(ptr noundef @.str.1, i32 noundef 740, ptr noundef @__func__.pg_ls_replslotdir)
  br label %28

28:                                               ; preds = %24, %22, %20
  unreachable

29:                                               ; No predecessors!
  br label %30

30:                                               ; preds = %29
  br label %31

31:                                               ; preds = %30, %1
  %32 = getelementptr inbounds [1024 x i8], ptr %4, i64 0, i64 0
  %33 = load ptr, ptr %5, align 8
  %34 = call i32 (ptr, i64, ptr, ...) @pg_snprintf(ptr noundef %32, i64 noundef 1024, ptr noundef @.str.16, ptr noundef @.str.17, ptr noundef %33)
  %35 = load ptr, ptr %2, align 8
  %36 = getelementptr inbounds [1024 x i8], ptr %4, i64 0, i64 0
  %37 = call i64 @pg_ls_dir_files(ptr noundef %35, ptr noundef %36, i1 noundef zeroext false)
  call void @llvm.lifetime.end.p0(i64 8, ptr %5) #9
  call void @llvm.lifetime.end.p0(i64 1024, ptr %4) #9
  call void @llvm.lifetime.end.p0(i64 8, ptr %3) #9
  ret i64 %37
}