; Function Attrs: nounwind uwtable
define dso_local noundef i64 @pg_ls_replslotdir(ptr noundef %0) local_unnamed_addr #0 {
  %2 = alloca [1024 x i8], align 16
  call void @llvm.lifetime.start.p0(i64 1024, ptr nonnull %2) #9
  %3 = getelementptr inbounds nuw i8, ptr %0, i64 32
  %4 = load i64, ptr %3, align 8
  %5 = inttoptr i64 %4 to ptr
  %6 = tail call ptr @pg_detoast_datum_packed(ptr noundef %5) #9
  %7 = tail call ptr @text_to_cstring(ptr noundef %6) #9
  %8 = tail call ptr @SearchNamedReplicationSlot(ptr noundef %7, i1 noundef zeroext true) #9
  %.not = icmp eq ptr %8, null
  br i1 %.not, label %9, label %13

9:                                                ; preds = %1
  %10 = tail call zeroext i1 @errstart_cold(i32 noundef 21, ptr noundef null) #10
  tail call void @llvm.assume(i1 %10)
  %11 = tail call i32 @errcode(i32 noundef 67137668) #9
  %12 = tail call i32 (ptr, ...) @errmsg(ptr noundef nonnull @.str.15, ptr noundef %7) #9
  tail call void @errfinish(ptr noundef nonnull @.str.1, i32 noundef 740, ptr noundef nonnull @__func__.pg_ls_replslotdir) #9
  unreachable

13:                                               ; preds = %1
  %14 = call i32 (ptr, i64, ptr, ...) @pg_snprintf(ptr noundef nonnull %2, i64 noundef 1024, ptr noundef nonnull @.str.16, ptr noundef nonnull @.str.17, ptr noundef %7) #9
  call fastcc void @pg_ls_dir_files(ptr noundef nonnull %0, ptr noundef nonnull %2, i1 noundef zeroext false)
  call void @llvm.lifetime.end.p0(i64 1024, ptr nonnull %2) #9
  ret i64 0
}